target datalayout = "e-m:e-p270:32:32-p271:32:32-p272:64:64-i64:64-i128:128-f80:128-n8:16:32:64-S128"
target triple = "x86_64-pc-linux-gnu"

%struct.darktable_t = type { %struct.dt_codepath_t, i32, i32, ptr, ptr, ptr, ptr, ptr, ptr, ptr, ptr, ptr, ptr, ptr, ptr, ptr, ptr, ptr, ptr, ptr, ptr, ptr, ptr, ptr, ptr, ptr, ptr, ptr, ptr, ptr, [64 x %struct.dt_pthread_mutex_t], %struct.dt_pthread_mutex_t, %struct.dt_pthread_mutex_t, %struct.dt_pthread_mutex_t, %struct.dt_pthread_mutex_t, %struct.dt_pthread_mutex_t, ptr, ptr, ptr, ptr, ptr, ptr, ptr, ptr, ptr, ptr, ptr, ptr, ptr, %struct.dt_lua_state_t, ptr, double, ptr, i32, [47 x i32], i32, i32, ptr, ptr, %struct.dt_sys_resources_t, %struct.dt_backthumb_t, %struct.dt_gimp_t }
%struct.dt_codepath_t = type { i8, [3 x i8] }
%struct.dt_pthread_mutex_t = type { %union.pthread_mutex_t }
%union.pthread_mutex_t = type { %struct.__pthread_mutex_s }
%struct.__pthread_mutex_s = type { i32, i32, i32, i32, i32, i16, i16, %struct.__pthread_internal_list }
%struct.__pthread_internal_list = type { ptr, ptr }
%struct.dt_lua_state_t = type { i32 }
%struct.dt_sys_resources_t = type { i64, i64, ptr, ptr, i32 }
%struct.dt_backthumb_t = type { double, double, i32, i32, i32, i32 }
%struct.dt_gimp_t = type { i32, ptr, ptr, i32, i32 }
%struct.dt_iop_buffer_dsc_t = type { i32, i32, i32, [6 x [6 x i8]], %struct.anon, [12 x i8], %struct.anon.0, [4 x float], i32, [12 x i8] }
%struct.anon = type { i16, i16 }
%struct.anon.0 = type { i32, [12 x i8], [4 x float] }
%struct.dt_iop_roi_t = type { i32, i32, i32, i32, float }
%struct.dt_dev_pixelpipe_iop_t = type { ptr, ptr, ptr, ptr, i32, i32, %struct.dt_dev_histogram_collection_params_t, ptr, %struct.dt_dev_histogram_stats_t, [4 x i32], float, i32, i32, i64, i32, i32, %struct.dt_iop_roi_t, %struct.dt_iop_roi_t, %struct.dt_iop_roi_t, %struct.dt_iop_roi_t, i32, i32, %struct.dt_iop_buffer_dsc_t, %struct.dt_iop_buffer_dsc_t, ptr, [8 x i8] }
%struct.dt_dev_histogram_collection_params_t = type { ptr, i32 }
%struct.dt_dev_histogram_stats_t = type { i32, i64, i32, i32 }
%struct.dt_lib_t = type { ptr, ptr, %struct.anon.17 }
%struct.anon.17 = type { %struct.anon.18, %struct.anon.19, %struct.anon.20, %struct.anon.21 }
%struct.anon.18 = type { ptr, ptr, ptr, ptr, ptr, i32, i32, i32, ptr, ptr, ptr, ptr, ptr }
%struct.anon.19 = type { ptr, ptr, i32 }
%struct.anon.20 = type { ptr }
%struct.anon.21 = type { i32 }
%struct.dt_colorpicker_sample_t = type { [2 x float], [8 x float], i32, i32, i32, i32, i32, [4 x i8], [3 x [4 x float]], [3 x [4 x float]], [3 x [4 x float]], [4 x i32], %struct._GdkRGBA, ptr, ptr, ptr, [8 x i8] }
%struct._GdkRGBA = type { double, double, double, double }

@darktable = external global %struct.darktable_t, align 8
@.str.6 = private unnamed_addr constant [1 x i8] zeroinitializer, align 1
@.str.186 = private unnamed_addr constant [20 x i8] c"pixelpipe IN picker\00", align 1
@.str.187 = private unnamed_addr constant [21 x i8] c"pixelpipe OUT picker\00", align 1
@.str.188 = private unnamed_addr constant [33 x i8] c"  %s -> %s, %sbox %i/%i -- %i/%i\00", align 1
@.str.189 = private unnamed_addr constant [10 x i8] c"denoised \00", align 1

; Function Attrs: nounwind uwtable
define internal void @_pixelpipe_picker(ptr noundef %0, ptr noundef %1, ptr noundef %2, ptr noundef %3, ptr noundef %4, ptr noundef %5, ptr noundef %6, ptr noundef %7, i32 noundef %8, i32 noundef %9) #0 {
  %11 = alloca ptr, align 8
  %12 = alloca ptr, align 8
  %13 = alloca ptr, align 8
  %14 = alloca ptr, align 8
  %15 = alloca ptr, align 8
  %16 = alloca ptr, align 8
  %17 = alloca ptr, align 8
  %18 = alloca ptr, align 8
  %19 = alloca i32, align 4
  %20 = alloca i32, align 4
  %21 = alloca [4 x i32], align 16
  %22 = alloca [3 x [4 x float]], align 16
  %23 = alloca i32, align 4
  %24 = alloca ptr, align 8
  %25 = alloca i64, align 8
  store ptr %0, ptr %11, align 8, !tbaa !103
  store ptr %1, ptr %12, align 8, !tbaa !94
  store ptr %2, ptr %13, align 8, !tbaa !136
  store ptr %3, ptr %14, align 8, !tbaa !193
  store ptr %4, ptr %15, align 8, !tbaa !87
  store ptr %5, ptr %16, align 8, !tbaa !193
  store ptr %6, ptr %17, align 8, !tbaa !193
  store ptr %7, ptr %18, align 8, !tbaa !193
  store i32 %8, ptr %19, align 4, !tbaa !11
  store i32 %9, ptr %20, align 4, !tbaa !11
  call void @llvm.lifetime.start.p0(i64 16, ptr %21) #17
  call void @llvm.memset.p0.i64(ptr align 16 %21, i8 0, i64 16, i1 false)
  call void @llvm.lifetime.start.p0(i64 48, ptr %22) #17
  call void @llvm.lifetime.start.p0(i64 4, ptr %23) #17
  %26 = load ptr, ptr %11, align 8, !tbaa !103
  %27 = load ptr, ptr %15, align 8, !tbaa !87
  %28 = load ptr, ptr getelementptr inbounds nuw (%struct.darktable_t, ptr @darktable, i32 0, i32 10), align 8, !tbaa !116
  %29 = getelementptr inbounds nuw %struct.dt_lib_t, ptr %28, i32 0, i32 2
  %30 = getelementptr inbounds nuw %struct.anon.17, ptr %29, i32 0, i32 0
  %31 = getelementptr inbounds nuw %struct.anon.18, ptr %30, i32 0, i32 1
  %32 = load ptr, ptr %31, align 8, !tbaa !117
  %33 = load i32, ptr %20, align 4, !tbaa !11
  %34 = getelementptr inbounds [4 x i32], ptr %21, i64 0, i64 0
  %35 = call i32 @dt_color_picker_box(ptr noundef %26, ptr noundef %27, ptr noundef %32, i32 noundef %33, ptr noundef %34)
  store i32 %35, ptr %23, align 4, !tbaa !11
  %36 = load i32, ptr %23, align 4, !tbaa !11
  %37 = icmp ne i32 %36, 0
  br i1 %37, label %103, label %38

38:                                               ; preds = %10
  call void @llvm.lifetime.start.p0(i64 8, ptr %24) #17
  %39 = load ptr, ptr %11, align 8, !tbaa !103
  %40 = load ptr, ptr %12, align 8, !tbaa !94
  %41 = getelementptr inbounds nuw %struct.dt_dev_pixelpipe_iop_t, ptr %40, i32 0, i32 1
  %42 = load ptr, ptr %41, align 8, !tbaa !238
  %43 = call ptr @dt_ioppr_get_pipe_current_profile_info(ptr noundef %39, ptr noundef %42)
  store ptr %43, ptr %24, align 8, !tbaa !323
  br label %44

44:                                               ; preds = %38
  %45 = load i32, ptr getelementptr inbounds nuw (%struct.darktable_t, ptr @darktable, i32 0, i32 2), align 8, !tbaa !54
  %46 = and i32 167772160, %45
  %47 = icmp ne i32 %46, 0
  br i1 %47, label %48, label %84

48:                                               ; preds = %44
  %49 = load i32, ptr getelementptr inbounds nuw (%struct.darktable_t, ptr @darktable, i32 0, i32 2), align 8, !tbaa !54
  %50 = xor i32 %49, -1
  %51 = and i32 0, %50
  %52 = icmp ne i32 %51, 0
  br i1 %52, label %84, label %53

53:                                               ; preds = %48
  %54 = load i32, ptr %20, align 4, !tbaa !11
  %55 = icmp eq i32 %54, 0
  %56 = select i1 %55, ptr @.str.186, ptr @.str.187
  %57 = load ptr, ptr %12, align 8, !tbaa !94
  %58 = getelementptr inbounds nuw %struct.dt_dev_pixelpipe_iop_t, ptr %57, i32 0, i32 1
  %59 = load ptr, ptr %58, align 8, !tbaa !238
  %60 = load ptr, ptr %11, align 8, !tbaa !103
  %61 = load ptr, ptr %15, align 8, !tbaa !87
  %62 = load i32, ptr %19, align 4, !tbaa !11
  %63 = call ptr @dt_iop_colorspace_to_name(i32 noundef %62)
  %64 = load ptr, ptr %11, align 8, !tbaa !103
  %65 = call i32 @dt_iop_color_picker_get_active_cst(ptr noundef %64)
  %66 = call ptr @dt_iop_colorspace_to_name(i32 noundef %65)
  %67 = load ptr, ptr getelementptr inbounds nuw (%struct.darktable_t, ptr @darktable, i32 0, i32 10), align 8, !tbaa !116
  %68 = getelementptr inbounds nuw %struct.dt_lib_t, ptr %67, i32 0, i32 2
  %69 = getelementptr inbounds nuw %struct.anon.17, ptr %68, i32 0, i32 0
  %70 = getelementptr inbounds nuw %struct.anon.18, ptr %69, i32 0, i32 1
  %71 = load ptr, ptr %70, align 8, !tbaa !117
  %72 = getelementptr inbounds nuw %struct.dt_colorpicker_sample_t, ptr %71, i32 0, i32 3
  %73 = load i32, ptr %72, align 4, !tbaa !349
  %74 = icmp ne i32 %73, 0
  %75 = select i1 %74, ptr @.str.189, ptr @.str.6
  %76 = getelementptr inbounds [4 x i32], ptr %21, i64 0, i64 0
  %77 = load i32, ptr %76, align 16, !tbaa !11
  %78 = getelementptr inbounds [4 x i32], ptr %21, i64 0, i64 1
  %79 = load i32, ptr %78, align 4, !tbaa !11
  %80 = getelementptr inbounds [4 x i32], ptr %21, i64 0, i64 2
  %81 = load i32, ptr %80, align 8, !tbaa !11
  %82 = getelementptr inbounds [4 x i32], ptr %21, i64 0, i64 3
  %83 = load i32, ptr %82, align 4, !tbaa !11
  call void (ptr, ptr, ptr, i32, ptr, ptr, ptr, ...) @dt_print_pipe_ext(ptr noundef %56, ptr noundef %59, ptr noundef %60, i32 noundef -1, ptr noundef %61, ptr noundef null, ptr noundef @.str.188, ptr noundef %63, ptr noundef %66, ptr noundef %75, i32 noundef %77, i32 noundef %79, i32 noundef %81, i32 noundef %83)
  br label %84

84:                                               ; preds = %53, %48, %44
  br label %85

85:                                               ; preds = %84
  br label %86

86:                                               ; preds = %85
  %87 = load ptr, ptr %13, align 8, !tbaa !136
  %88 = load ptr, ptr %14, align 8, !tbaa !193
  %89 = load ptr, ptr %15, align 8, !tbaa !87
  %90 = getelementptr inbounds [4 x i32], ptr %21, i64 0, i64 0
  %91 = load ptr, ptr getelementptr inbounds nuw (%struct.darktable_t, ptr @darktable, i32 0, i32 10), align 8, !tbaa !116
  %92 = getelementptr inbounds nuw %struct.dt_lib_t, ptr %91, i32 0, i32 2
  %93 = getelementptr inbounds nuw %struct.anon.17, ptr %92, i32 0, i32 0
  %94 = getelementptr inbounds nuw %struct.anon.18, ptr %93, i32 0, i32 1
  %95 = load ptr, ptr %94, align 8, !tbaa !117
  %96 = getelementptr inbounds nuw %struct.dt_colorpicker_sample_t, ptr %95, i32 0, i32 3
  %97 = load i32, ptr %96, align 4, !tbaa !349
  %98 = getelementptr inbounds [3 x [4 x float]], ptr %22, i64 0, i64 0
  %99 = load i32, ptr %19, align 4, !tbaa !11
  %100 = load ptr, ptr %11, align 8, !tbaa !103
  %101 = call i32 @dt_iop_color_picker_get_active_cst(ptr noundef %100)
  %102 = load ptr, ptr %24, align 8, !tbaa !323
  call void @dt_color_picker_helper(ptr noundef %87, ptr noundef %88, ptr noundef %89, ptr noundef %90, i32 noundef %97, ptr noundef %98, i32 noundef %99, i32 noundef %101, ptr noundef %102)
  call void @llvm.lifetime.end.p0(i64 8, ptr %24) #17
  br label %103

103:                                              ; preds = %86, %10
  call void @llvm.lifetime.start.p0(i64 8, ptr %25) #17
  store i64 0, ptr %25, align 8, !tbaa !13
  br label %104

104:                                              ; preds = %148, %103
  %105 = load i64, ptr %25, align 8, !tbaa !13
  %106 = icmp ult i64 %105, 4
  br i1 %106, label %108, label %107

107:                                              ; preds = %104
  call void @llvm.lifetime.end.p0(i64 8, ptr %25) #17
  br label %151

108:                                              ; preds = %104
  %109 = load i32, ptr %23, align 4, !tbaa !11
  %110 = icmp ne i32 %109, 0
  br i1 %110, label %111, label %112

111:                                              ; preds = %108
  br label %117

112:                                              ; preds = %108
  %113 = getelementptr inbounds [3 x [4 x float]], ptr %22, i64 0, i64 1
  %114 = load i64, ptr %25, align 8, !tbaa !13
  %115 = getelementptr inbounds nuw [4 x float], ptr %113, i64 0, i64 %114
  %116 = load float, ptr %115, align 4, !tbaa !194
  br label %117

117:                                              ; preds = %112, %111
  %118 = phi reassoc nsz arcp contract afn float [ 0x47EFFFFFE0000000, %111 ], [ %116, %112 ]
  %119 = load ptr, ptr %17, align 8, !tbaa !193
  %120 = load i64, ptr %25, align 8, !tbaa !13
  %121 = getelementptr inbounds nuw float, ptr %119, i64 %120
  store float %118, ptr %121, align 4, !tbaa !194
  %122 = load i32, ptr %23, align 4, !tbaa !11
  %123 = icmp ne i32 %122, 0
  br i1 %123, label %124, label %125

124:                                              ; preds = %117
  br label %130

125:                                              ; preds = %117
  %126 = getelementptr inbounds [3 x [4 x float]], ptr %22, i64 0, i64 2
  %127 = load i64, ptr %25, align 8, !tbaa !13
  %128 = getelementptr inbounds nuw [4 x float], ptr %126, i64 0, i64 %127
  %129 = load float, ptr %128, align 4, !tbaa !194
  br label %130

130:                                              ; preds = %125, %124
  %131 = phi reassoc nsz arcp contract afn float [ 0xC7EFFFFFE0000000, %124 ], [ %129, %125 ]
  %132 = load ptr, ptr %18, align 8, !tbaa !193
  %133 = load i64, ptr %25, align 8, !tbaa !13
  %134 = getelementptr inbounds nuw float, ptr %132, i64 %133
  store float %131, ptr %134, align 4, !tbaa !194
  %135 = load i32, ptr %23, align 4, !tbaa !11
  %136 = icmp ne i32 %135, 0
  br i1 %136, label %137, label %138

137:                                              ; preds = %130
  br label %143

138:                                              ; preds = %130
  %139 = getelementptr inbounds [3 x [4 x float]], ptr %22, i64 0, i64 0
  %140 = load i64, ptr %25, align 8, !tbaa !13
  %141 = getelementptr inbounds nuw [4 x float], ptr %139, i64 0, i64 %140
  %142 = load float, ptr %141, align 4, !tbaa !194
  br label %143

143:                                              ; preds = %138, %137
  %144 = phi reassoc nsz arcp contract afn float [ 0.000000e+00, %137 ], [ %142, %138 ]
  %145 = load ptr, ptr %16, align 8, !tbaa !193
  %146 = load i64, ptr %25, align 8, !tbaa !13
  %147 = getelementptr inbounds nuw float, ptr %145, i64 %146
  store float %144, ptr %147, align 4, !tbaa !194
  br label %148

148:                                              ; preds = %143
  %149 = load i64, ptr %25, align 8, !tbaa !13
  %150 = add i64 %149, 1
  store i64 %150, ptr %25, align 8, !tbaa !13
  br label %104

151:                                              ; preds = %107
  call void @llvm.lifetime.end.p0(i64 4, ptr %23) #17
  call void @llvm.lifetime.end.p0(i64 48, ptr %22) #17
  call void @llvm.lifetime.end.p0(i64 16, ptr %21) #17
  ret void
}