; Function Attrs: nounwind uwtable
define internal fastcc void @_pixelpipe_picker(ptr noundef %0, ptr noundef readonly captures(none) %1, ptr noundef %2, ptr noundef %3, ptr noundef nonnull %4, ptr noundef writeonly captures(none) %5, ptr noundef writeonly captures(none) %6, ptr noundef writeonly captures(none) %7, i32 noundef %8, i32 noundef range(i32 0, 2) %9) unnamed_addr #0 {
  %11 = alloca [4 x i32], align 16
  %12 = alloca [3 x [4 x float]], align 16
  call void @llvm.lifetime.start.p0(i64 16, ptr nonnull %11) #27
  call void @llvm.memset.p0.i64(ptr noundef nonnull align 16 dereferenceable(16) %11, i8 0, i64 16, i1 false)
  call void @llvm.lifetime.start.p0(i64 48, ptr nonnull %12) #27
  %13 = load ptr, ptr getelementptr inbounds nuw (i8, ptr @darktable, i64 72), align 8, !tbaa !108
  %14 = getelementptr inbounds nuw i8, ptr %13, i64 24
  %15 = load ptr, ptr %14, align 8, !tbaa !109
  %16 = call i32 @dt_color_picker_box(ptr noundef %0, ptr noundef nonnull %4, ptr noundef %15, i32 noundef %9, ptr noundef nonnull %11) #27
  %.not = icmp eq i32 %16, 0
  br i1 %.not, label %17, label %.split

17:                                               ; preds = %10
  %18 = getelementptr inbounds nuw i8, ptr %1, i64 8
  %19 = load ptr, ptr %18, align 8, !tbaa !213
  %20 = call ptr @dt_ioppr_get_pipe_current_profile_info(ptr noundef %0, ptr noundef %19) #27
  %21 = load i32, ptr getelementptr inbounds nuw (i8, ptr @darktable, i64 8), align 8, !tbaa !48
  %22 = and i32 %21, 167772160
  %.not31 = icmp eq i32 %22, 0
  br i1 %.not31, label %.split.us.preheader, label %23

23:                                               ; preds = %17
  %24 = icmp eq i32 %9, 0
  %25 = select i1 %24, ptr @.str.186, ptr @.str.187
  %26 = load ptr, ptr %18, align 8, !tbaa !213
  %27 = call ptr @dt_iop_colorspace_to_name(i32 noundef %8) #27
  %28 = call i32 @dt_iop_color_picker_get_active_cst(ptr noundef %0) #27
  %29 = call ptr @dt_iop_colorspace_to_name(i32 noundef %28) #27
  %30 = load ptr, ptr getelementptr inbounds nuw (i8, ptr @darktable, i64 72), align 8, !tbaa !108
  %31 = getelementptr inbounds nuw i8, ptr %30, i64 24
  %32 = load ptr, ptr %31, align 8, !tbaa !109
  %33 = getelementptr inbounds nuw i8, ptr %32, i64 44
  %34 = load i32, ptr %33, align 4, !tbaa !329
  %.not32 = icmp eq i32 %34, 0
  %35 = select i1 %.not32, ptr @.str.6, ptr @.str.189
  %36 = load i32, ptr %11, align 16, !tbaa !26
  %37 = getelementptr inbounds nuw i8, ptr %11, i64 4
  %38 = load i32, ptr %37, align 4, !tbaa !26
  %39 = getelementptr inbounds nuw i8, ptr %11, i64 8
  %40 = load i32, ptr %39, align 8, !tbaa !26
  %41 = getelementptr inbounds nuw i8, ptr %11, i64 12
  %42 = load i32, ptr %41, align 4, !tbaa !26
  call void (ptr, ptr, ptr, i32, ptr, ptr, ptr, ...) @dt_print_pipe_ext(ptr noundef nonnull %25, ptr noundef %26, ptr noundef %0, i32 noundef -1, ptr noundef nonnull %4, ptr noundef null, ptr noundef nonnull @.str.188, ptr noundef %27, ptr noundef %29, ptr noundef nonnull %35, i32 noundef %36, i32 noundef %38, i32 noundef %40, i32 noundef %42)
  br label %.split.us.preheader

.split.us.preheader:                              ; preds = %17, %23
  %43 = load ptr, ptr getelementptr inbounds nuw (i8, ptr @darktable, i64 72), align 8, !tbaa !108
  %44 = getelementptr inbounds nuw i8, ptr %43, i64 24
  %45 = load ptr, ptr %44, align 8, !tbaa !109
  %46 = getelementptr inbounds nuw i8, ptr %45, i64 44
  %47 = load i32, ptr %46, align 4, !tbaa !329
  %48 = call i32 @dt_iop_color_picker_get_active_cst(ptr noundef %0) #27
  call void @dt_color_picker_helper(ptr noundef %2, ptr noundef %3, ptr noundef nonnull %4, ptr noundef nonnull %11, i32 noundef %47, ptr noundef nonnull %12, i32 noundef %8, i32 noundef %48, ptr noundef %20) #27
  %49 = getelementptr inbounds nuw i8, ptr %12, i64 16
  %50 = getelementptr inbounds nuw i8, ptr %12, i64 32
  br label %.split.us

.split.us:                                        ; preds = %.split.us.preheader, %.split.us
  %.035.us = phi i64 [ %60, %.split.us ], [ 0, %.split.us.preheader ]
  %51 = getelementptr inbounds nuw [4 x float], ptr %49, i64 0, i64 %.035.us
  %52 = load float, ptr %51, align 4, !tbaa !165
  %53 = getelementptr inbounds nuw float, ptr %6, i64 %.035.us
  store float %52, ptr %53, align 4, !tbaa !165
  %54 = getelementptr inbounds nuw [4 x float], ptr %50, i64 0, i64 %.035.us
  %55 = load float, ptr %54, align 4, !tbaa !165
  %56 = getelementptr inbounds nuw float, ptr %7, i64 %.035.us
  store float %55, ptr %56, align 4, !tbaa !165
  %57 = getelementptr inbounds nuw [4 x float], ptr %12, i64 0, i64 %.035.us
  %58 = load float, ptr %57, align 4, !tbaa !165
  %59 = getelementptr inbounds nuw float, ptr %5, i64 %.035.us
  store float %58, ptr %59, align 4, !tbaa !165
  %60 = add nuw nsw i64 %.035.us, 1
  %exitcond39.not = icmp eq i64 %60, 4
  br i1 %exitcond39.not, label %.split37.us, label %.split.us

.split37.us:                                      ; preds = %.split, %.split.us
  call void @llvm.lifetime.end.p0(i64 48, ptr nonnull %12) #27
  call void @llvm.lifetime.end.p0(i64 16, ptr nonnull %11) #27
  ret void

.split:                                           ; preds = %10, %.split
  %.035 = phi i64 [ %64, %.split ], [ 0, %10 ]
  %61 = getelementptr inbounds nuw float, ptr %6, i64 %.035
  store float 0x47EFFFFFE0000000, ptr %61, align 4, !tbaa !165
  %62 = getelementptr inbounds nuw float, ptr %7, i64 %.035
  store float 0xC7EFFFFFE0000000, ptr %62, align 4, !tbaa !165
  %63 = getelementptr inbounds nuw float, ptr %5, i64 %.035
  store float 0.000000e+00, ptr %63, align 4, !tbaa !165
  %64 = add nuw nsw i64 %.035, 1
  %exitcond.not = icmp eq i64 %64, 4
  br i1 %exitcond.not, label %.split37.us, label %.split
}